target datalayout = "e-m:e-p270:32:32-p271:32:32-p272:64:64-i64:64-i128:128-f80:128-n8:16:32:64-S128"
target triple = "x86_64-pc-linux-gnu"

%struct.testdata = type { ptr, ptr, i64, i8 }

@.str.3 = private unnamed_addr constant [30 x i8] c"../openssl/test/hexstr_test.c\00", align 1
@.str.5 = private unnamed_addr constant [4 x i8] c"buf\00", align 1
@.str.6 = private unnamed_addr constant [15 x i8] c"test->expected\00", align 1
@.str.8 = private unnamed_addr constant [4 x i8] c"out\00", align 1
@.str.9 = private unnamed_addr constant [9 x i8] c"test->in\00", align 1
@.str.17 = private unnamed_addr constant [41 x i8] c"buf = OPENSSL_hexstr2buf(test->in, &len)\00", align 1
@.str.18 = private unnamed_addr constant [35 x i8] c"out = OPENSSL_buf2hexstr(buf, len)\00", align 1

; Function Attrs: nounwind uwtable
define internal i32 @test_hexstr_to_from(i32 noundef %0) #0 {
  %2 = alloca i32, align 4
  %3 = alloca i32, align 4
  %4 = alloca i64, align 8
  %5 = alloca ptr, align 8
  %6 = alloca ptr, align 8
  %7 = alloca ptr, align 8
  store i32 %0, ptr %2, align 4, !tbaa !4
  call void @llvm.lifetime.start.p0(i64 4, ptr %3) #4
  store i32 0, ptr %3, align 4, !tbaa !4
  call void @llvm.lifetime.start.p0(i64 8, ptr %4) #4
  store i64 0, ptr %4, align 8, !tbaa !8
  call void @llvm.lifetime.start.p0(i64 8, ptr %5) #4
  store ptr null, ptr %5, align 8, !tbaa !10
  call void @llvm.lifetime.start.p0(i64 8, ptr %6) #4
  store ptr null, ptr %6, align 8, !tbaa !10
  call void @llvm.lifetime.start.p0(i64 8, ptr %7) #4
  %8 = load i32, ptr %2, align 4, !tbaa !4
  %9 = sext i32 %8 to i64
  %10 = getelementptr inbounds [6 x %struct.testdata], ptr @tbl_testdata, i64 0, i64 %9
  store ptr %10, ptr %7, align 8, !tbaa !13
  %11 = load ptr, ptr %7, align 8, !tbaa !13
  %12 = getelementptr inbounds nuw %struct.testdata, ptr %11, i32 0, i32 3
  %13 = load i8, ptr %12, align 8, !tbaa !17
  %14 = sext i8 %13 to i32
  %15 = icmp ne i32 %14, 95
  br i1 %15, label %16, label %66

16:                                               ; preds = %1
  %17 = load ptr, ptr %7, align 8, !tbaa !13
  %18 = getelementptr inbounds nuw %struct.testdata, ptr %17, i32 0, i32 0
  %19 = load ptr, ptr %18, align 8, !tbaa !15
  %20 = call ptr @OPENSSL_hexstr2buf(ptr noundef %19, ptr noundef %4)
  store ptr %20, ptr %5, align 8, !tbaa !10
  %21 = call i32 @test_ptr(ptr noundef @.str.3, i32 noundef 92, ptr noundef @.str.17, ptr noundef %20)
  %22 = icmp ne i32 %21, 0
  br i1 %22, label %23, label %40

23:                                               ; preds = %16
  %24 = load ptr, ptr %5, align 8, !tbaa !10
  %25 = load i64, ptr %4, align 8, !tbaa !8
  %26 = load ptr, ptr %7, align 8, !tbaa !13
  %27 = getelementptr inbounds nuw %struct.testdata, ptr %26, i32 0, i32 1
  %28 = load ptr, ptr %27, align 8, !tbaa !18
  %29 = load ptr, ptr %7, align 8, !tbaa !13
  %30 = getelementptr inbounds nuw %struct.testdata, ptr %29, i32 0, i32 2
  %31 = load i64, ptr %30, align 8, !tbaa !19
  %32 = call i32 @test_mem_eq(ptr noundef @.str.3, i32 noundef 93, ptr noundef @.str.5, ptr noundef @.str.6, ptr noundef %24, i64 noundef %25, ptr noundef %28, i64 noundef %31)
  %33 = icmp ne i32 %32, 0
  br i1 %33, label %34, label %40

34:                                               ; preds = %23
  %35 = load ptr, ptr %5, align 8, !tbaa !10
  %36 = load i64, ptr %4, align 8, !tbaa !8
  %37 = call ptr @OPENSSL_buf2hexstr(ptr noundef %35, i64 noundef %36)
  store ptr %37, ptr %6, align 8, !tbaa !10
  %38 = call i32 @test_ptr(ptr noundef @.str.3, i32 noundef 94, ptr noundef @.str.18, ptr noundef %37)
  %39 = icmp ne i32 %38, 0
  br i1 %39, label %41, label %40

40:                                               ; preds = %34, %23, %16
  br label %76

41:                                               ; preds = %34
  %42 = load ptr, ptr %7, align 8, !tbaa !13
  %43 = getelementptr inbounds nuw %struct.testdata, ptr %42, i32 0, i32 3
  %44 = load i8, ptr %43, align 8, !tbaa !17
  %45 = sext i8 %44 to i32
  %46 = icmp eq i32 %45, 58
  br i1 %46, label %47, label %56

47:                                               ; preds = %41
  %48 = load ptr, ptr %6, align 8, !tbaa !10
  %49 = load ptr, ptr %7, align 8, !tbaa !13
  %50 = getelementptr inbounds nuw %struct.testdata, ptr %49, i32 0, i32 0
  %51 = load ptr, ptr %50, align 8, !tbaa !15
  %52 = call i32 @test_str_eq(ptr noundef @.str.3, i32 noundef 97, ptr noundef @.str.8, ptr noundef @.str.9, ptr noundef %48, ptr noundef %51)
  %53 = icmp ne i32 %52, 0
  br i1 %53, label %55, label %54

54:                                               ; preds = %47
  br label %76

55:                                               ; preds = %47
  br label %65

56:                                               ; preds = %41
  %57 = load ptr, ptr %6, align 8, !tbaa !10
  %58 = load ptr, ptr %7, align 8, !tbaa !13
  %59 = getelementptr inbounds nuw %struct.testdata, ptr %58, i32 0, i32 0
  %60 = load ptr, ptr %59, align 8, !tbaa !15
  %61 = call i32 @test_str_ne(ptr noundef @.str.3, i32 noundef 99, ptr noundef @.str.8, ptr noundef @.str.9, ptr noundef %57, ptr noundef %60)
  %62 = icmp ne i32 %61, 0
  br i1 %62, label %64, label %63

63:                                               ; preds = %56
  br label %76

64:                                               ; preds = %56
  br label %65

65:                                               ; preds = %64, %55
  br label %75

66:                                               ; preds = %1
  %67 = load ptr, ptr %7, align 8, !tbaa !13
  %68 = getelementptr inbounds nuw %struct.testdata, ptr %67, i32 0, i32 0
  %69 = load ptr, ptr %68, align 8, !tbaa !15
  %70 = call ptr @OPENSSL_hexstr2buf(ptr noundef %69, ptr noundef %4)
  store ptr %70, ptr %5, align 8, !tbaa !10
  %71 = call i32 @test_ptr_null(ptr noundef @.str.3, i32 noundef 103, ptr noundef @.str.17, ptr noundef %70)
  %72 = icmp ne i32 %71, 0
  br i1 %72, label %74, label %73

73:                                               ; preds = %66
  br label %76

74:                                               ; preds = %66
  br label %75

75:                                               ; preds = %74, %65
  store i32 1, ptr %3, align 4, !tbaa !4
  br label %76

76:                                               ; preds = %75, %73, %63, %54, %40
  %77 = load ptr, ptr %5, align 8, !tbaa !10
  call void @CRYPTO_free(ptr noundef %77, ptr noundef @.str.3, i32 noundef 108)
  %78 = load ptr, ptr %6, align 8, !tbaa !10
  call void @CRYPTO_free(ptr noundef %78, ptr noundef @.str.3, i32 noundef 109)
  %79 = load i32, ptr %3, align 4, !tbaa !4
  call void @llvm.lifetime.end.p0(i64 8, ptr %7) #4
  call void @llvm.lifetime.end.p0(i64 8, ptr %6) #4
  call void @llvm.lifetime.end.p0(i64 8, ptr %5) #4
  call void @llvm.lifetime.end.p0(i64 8, ptr %4) #4
  call void @llvm.lifetime.end.p0(i64 4, ptr %3) #4
  ret i32 %79
}