; Function Attrs: nounwind uwtable
define internal range(i32 0, 2) i32 @test_hexstr_to_from(i32 noundef %0) #0 {
  %2 = alloca i64, align 8
  call void @llvm.lifetime.start.p0(i64 8, ptr nonnull %2) #4
  store i64 0, ptr %2, align 8, !tbaa !4
  %3 = sext i32 %0 to i64
  %4 = getelementptr inbounds [6 x %struct.testdata], ptr @tbl_testdata, i64 0, i64 %3
  %5 = getelementptr inbounds nuw i8, ptr %4, i64 24
  %6 = load i8, ptr %5, align 8, !tbaa !12
  %.not = icmp eq i8 %6, 95
  %7 = load ptr, ptr %4, align 16, !tbaa !8
  %8 = call ptr @OPENSSL_hexstr2buf(ptr noundef %7, ptr noundef nonnull %2) #4
  br i1 %.not, label %28, label %9

9:                                                ; preds = %1
  %10 = call i32 @test_ptr(ptr noundef nonnull @.str.3, i32 noundef 92, ptr noundef nonnull @.str.17, ptr noundef %8) #4
  %.not19 = icmp eq i32 %10, 0
  br i1 %.not19, label %31, label %11

11:                                               ; preds = %9
  %12 = load i64, ptr %2, align 8, !tbaa !4
  %13 = getelementptr inbounds nuw i8, ptr %4, i64 8
  %14 = load ptr, ptr %13, align 8, !tbaa !13
  %15 = getelementptr inbounds nuw i8, ptr %4, i64 16
  %16 = load i64, ptr %15, align 16, !tbaa !14
  %17 = call i32 @test_mem_eq(ptr noundef nonnull @.str.3, i32 noundef 93, ptr noundef nonnull @.str.5, ptr noundef nonnull @.str.6, ptr noundef %8, i64 noundef %12, ptr noundef %14, i64 noundef %16) #4
  %.not20 = icmp eq i32 %17, 0
  br i1 %.not20, label %31, label %18

18:                                               ; preds = %11
  %19 = load i64, ptr %2, align 8, !tbaa !4
  %20 = call ptr @OPENSSL_buf2hexstr(ptr noundef %8, i64 noundef %19) #4
  %21 = call i32 @test_ptr(ptr noundef nonnull @.str.3, i32 noundef 94, ptr noundef nonnull @.str.18, ptr noundef %20) #4
  %.not21 = icmp eq i32 %21, 0
  br i1 %.not21, label %31, label %22

22:                                               ; preds = %18
  %23 = icmp eq i8 %6, 58
  br i1 %23, label %24, label %26

24:                                               ; preds = %22
  %25 = call i32 @test_str_eq(ptr noundef nonnull @.str.3, i32 noundef 97, ptr noundef nonnull @.str.8, ptr noundef nonnull @.str.9, ptr noundef %20, ptr noundef %7) #4
  %.not23 = icmp eq i32 %25, 0
  br i1 %.not23, label %31, label %30

26:                                               ; preds = %22
  %27 = call i32 @test_str_ne(ptr noundef nonnull @.str.3, i32 noundef 99, ptr noundef nonnull @.str.8, ptr noundef nonnull @.str.9, ptr noundef %20, ptr noundef %7) #4
  %.not22 = icmp eq i32 %27, 0
  br i1 %.not22, label %31, label %30

28:                                               ; preds = %1
  %29 = call i32 @test_ptr_null(ptr noundef nonnull @.str.3, i32 noundef 103, ptr noundef nonnull @.str.17, ptr noundef %8) #4
  %.not18 = icmp eq i32 %29, 0
  br i1 %.not18, label %31, label %30

30:                                               ; preds = %28, %24, %26
  %.1 = phi ptr [ %20, %24 ], [ %20, %26 ], [ null, %28 ]
  br label %31

31:                                               ; preds = %28, %26, %24, %9, %11, %18, %30
  %.015 = phi ptr [ %.1, %30 ], [ %20, %24 ], [ %20, %26 ], [ %20, %18 ], [ null, %11 ], [ null, %9 ], [ null, %28 ]
  %.0 = phi i32 [ 1, %30 ], [ 0, %24 ], [ 0, %26 ], [ 0, %18 ], [ 0, %11 ], [ 0, %9 ], [ 0, %28 ]
  call void @CRYPTO_free(ptr noundef %8, ptr noundef nonnull @.str.3, i32 noundef 108) #4
  call void @CRYPTO_free(ptr noundef %.015, ptr noundef nonnull @.str.3, i32 noundef 109) #4
  call void @llvm.lifetime.end.p0(i64 8, ptr nonnull %2) #4
  ret i32 %.0
}